target datalayout = "e-m:e-p270:32:32-p271:32:32-p272:64:64-i64:64-i128:128-f80:128-n8:16:32:64-S128"
target triple = "x86_64-pc-linux-gnu"

%struct.git_hash_algo = type { ptr, i32, i64, i64, i64, ptr, ptr, ptr, ptr, ptr, ptr, ptr, ptr, ptr }
%struct.repository = type { ptr, ptr, ptr, ptr, ptr, %struct.strmap, %struct.strmap, %struct.repo_path_cache, ptr, ptr, ptr, ptr, %struct.repo_settings, ptr, ptr, ptr, ptr, ptr, ptr, i32, i32, i32, ptr, ptr, i32, i32, i8 }
%struct.strmap = type { %struct.hashmap, ptr, i8 }
%struct.hashmap = type { ptr, ptr, ptr, i32, i32, i32, i32, i8 }
%struct.repo_path_cache = type { ptr, ptr, ptr, ptr, ptr, ptr, ptr }
%struct.repo_settings = type { i32, i32, i32, i32, i32, i32, i32, i32, i32, i32, i32, i32, ptr, i32, i32, i32, i32, i32, i32, i32, i64, i64, i64 }
%struct.commit_graph = type { ptr, i64, i8, i8, i32, %struct.object_id, ptr, ptr, i32, i32, ptr, ptr, ptr, ptr, ptr, ptr, i64, ptr, i64, ptr, i64, ptr, ptr, i64, ptr, ptr }
%struct.object_id = type { [32 x i8], i32 }

@the_repository = external global ptr, align 8
@.str.31 = private unnamed_addr constant [1 x i8] zeroinitializer, align 1
@git_gettext_enabled = external global i32, align 4
@.str.35 = private unnamed_addr constant [45 x i8] c"commit-graph commit data chunk is wrong size\00", align 1

; Function Attrs: inlinehint nounwind uwtable
define internal i32 @const_error() #5 {
  ret i32 -1
}

; Function Attrs: inlinehint nounwind uwtable
define internal ptr @_(ptr noundef %0) #5 {
  %2 = alloca ptr, align 8
  %3 = alloca ptr, align 8
  store ptr %0, ptr %3, align 8, !tbaa !65
  %4 = load ptr, ptr %3, align 8, !tbaa !65
  %5 = load i8, ptr %4, align 1, !tbaa !85
  %6 = icmp ne i8 %5, 0
  br i1 %6, label %8, label %7

7:                                                ; preds = %1
  store ptr @.str.31, ptr %2, align 8
  br label %16

8:                                                ; preds = %1
  %9 = load i32, ptr @git_gettext_enabled, align 4, !tbaa !4
  %10 = icmp ne i32 %9, 0
  br i1 %10, label %13, label %11

11:                                               ; preds = %8
  %12 = load ptr, ptr %3, align 8, !tbaa !65
  store ptr %12, ptr %2, align 8
  br label %16

13:                                               ; preds = %8
  %14 = load ptr, ptr %3, align 8, !tbaa !65
  %15 = call ptr @dcgettext(ptr noundef null, ptr noundef %14, i32 noundef 5) #12
  store ptr %15, ptr %2, align 8
  br label %16

16:                                               ; preds = %13, %11, %7
  %17 = load ptr, ptr %2, align 8
  ret ptr %17
}

; Function Attrs: nounwind uwtable
define internal i32 @graph_read_commit_data(ptr noundef %0, i64 noundef %1, ptr noundef %2) #0 {
  %4 = alloca i32, align 4
  %5 = alloca ptr, align 8
  %6 = alloca i64, align 8
  %7 = alloca ptr, align 8
  %8 = alloca ptr, align 8
  %9 = alloca i32, align 4
  store ptr %0, ptr %5, align 8, !tbaa !65
  store i64 %1, ptr %6, align 8, !tbaa !73
  store ptr %2, ptr %7, align 8, !tbaa !78
  call void @llvm.lifetime.start.p0(i64 8, ptr %8) #12
  %10 = load ptr, ptr %7, align 8, !tbaa !78
  store ptr %10, ptr %8, align 8, !tbaa !79
  %11 = load i64, ptr %6, align 8, !tbaa !73
  %12 = load ptr, ptr @the_repository, align 8, !tbaa !8
  %13 = getelementptr inbounds nuw %struct.repository, ptr %12, i32 0, i32 17
  %14 = load ptr, ptr %13, align 8, !tbaa !74
  %15 = getelementptr inbounds nuw %struct.git_hash_algo, ptr %14, i32 0, i32 2
  %16 = load i64, ptr %15, align 8, !tbaa !75
  %17 = add i64 %16, 16
  %18 = udiv i64 %11, %17
  %19 = load ptr, ptr %8, align 8, !tbaa !79
  %20 = getelementptr inbounds nuw %struct.commit_graph, ptr %19, i32 0, i32 4
  %21 = load i32, ptr %20, align 4, !tbaa !102
  %22 = zext i32 %21 to i64
  %23 = icmp ne i64 %18, %22
  br i1 %23, label %24, label %28

24:                                               ; preds = %3
  %25 = call ptr @_(ptr noundef @.str.35)
  %26 = call i32 (ptr, ...) @error(ptr noundef %25)
  %27 = call i32 @const_error()
  store i32 %27, ptr %4, align 4
  store i32 1, ptr %9, align 4
  br label %32

28:                                               ; preds = %3
  %29 = load ptr, ptr %5, align 8, !tbaa !65
  %30 = load ptr, ptr %8, align 8, !tbaa !79
  %31 = getelementptr inbounds nuw %struct.commit_graph, ptr %30, i32 0, i32 13
  store ptr %29, ptr %31, align 8, !tbaa !106
  store i32 0, ptr %4, align 4
  store i32 1, ptr %9, align 4
  br label %32

32:                                               ; preds = %28, %24
  call void @llvm.lifetime.end.p0(i64 8, ptr %8) #12
  %33 = load i32, ptr %4, align 4
  ret i32 %33
}