; Function Attrs: nounwind uwtable
define internal range(i32 -1, 1) i32 @graph_read_commit_data(ptr noundef %0, i64 noundef %1, ptr noundef captures(none) %2) #0 {
  %4 = load ptr, ptr @the_repository, align 8, !tbaa !4
  %5 = getelementptr inbounds nuw i8, ptr %4, i64 400
  %6 = load ptr, ptr %5, align 8, !tbaa !71
  %7 = getelementptr inbounds nuw i8, ptr %6, i64 16
  %8 = load i64, ptr %7, align 8, !tbaa !72
  %9 = add i64 %8, 16
  %10 = udiv i64 %1, %9
  %11 = getelementptr inbounds nuw i8, ptr %2, i64 20
  %12 = load i32, ptr %11, align 4, !tbaa !97
  %13 = zext i32 %12 to i64
  %.not = icmp eq i64 %10, %13
  br i1 %.not, label %19, label %14

14:                                               ; preds = %3
  %15 = load i32, ptr @git_gettext_enabled, align 4, !tbaa !47
  %.not4.i = icmp eq i32 %15, 0
  br i1 %.not4.i, label %_.exit, label %16

16:                                               ; preds = %14
  %17 = tail call ptr @dcgettext(ptr noundef null, ptr noundef nonnull @.str.35, i32 noundef 5) #24
  br label %_.exit

_.exit:                                           ; preds = %14, %16
  %.0.i = phi ptr [ %17, %16 ], [ @.str.35, %14 ]
  %18 = tail call i32 (ptr, ...) @error(ptr noundef %.0.i) #24
  br label %21

19:                                               ; preds = %3
  %20 = getelementptr inbounds nuw i8, ptr %2, i64 112
  store ptr %0, ptr %20, align 8, !tbaa !100
  br label %21

21:                                               ; preds = %19, %_.exit
  %.0 = phi i32 [ -1, %_.exit ], [ 0, %19 ]
  ret i32 %.0
}